target datalayout = "e-m:e-p270:32:32-p271:32:32-p272:64:64-i64:64-i128:128-f80:128-n8:16:32:64-S128"
target triple = "x86_64-pc-linux-gnu"

%struct.sdshdr8 = type { i8, i8, i8, [0 x i8] }
%struct.sdshdr16 = type <{ i16, i16, i8, [0 x i8] }>
%struct.sdshdr32 = type <{ i32, i32, i8, [0 x i8] }>
%struct.sdshdr64 = type <{ i64, i64, i8, [0 x i8] }>

@.str.18 = private unnamed_addr constant [5 x i8] c" \0D\0A\09\00", align 1
@.str.19 = private unnamed_addr constant [2 x i8] c"/\00", align 1

; Function Attrs: inlinehint nounwind uwtable
define internal i64 @sdslen(ptr noundef %0) #9 {
  %2 = alloca i64, align 8
  %3 = alloca ptr, align 8
  %4 = alloca i8, align 1
  %5 = alloca i32, align 4
  store ptr %0, ptr %3, align 8, !tbaa !5
  call void @llvm.lifetime.start.p0(i64 1, ptr %4) #13
  %6 = load ptr, ptr %3, align 8, !tbaa !5
  %7 = getelementptr inbounds i8, ptr %6, i64 -1
  %8 = load i8, ptr %7, align 1, !tbaa !12
  store i8 %8, ptr %4, align 1, !tbaa !12
  %9 = load i8, ptr %4, align 1, !tbaa !12
  %10 = zext i8 %9 to i32
  %11 = and i32 %10, 7
  switch i32 %11, label %40 [
    i32 0, label %12
    i32 1, label %17
    i32 2, label %23
    i32 3, label %29
    i32 4, label %35
  ]

12:                                               ; preds = %1
  %13 = load i8, ptr %4, align 1, !tbaa !12
  %14 = zext i8 %13 to i32
  %15 = ashr i32 %14, 3
  %16 = sext i32 %15 to i64
  store i64 %16, ptr %2, align 8
  store i32 1, ptr %5, align 4
  br label %41

17:                                               ; preds = %1
  %18 = load ptr, ptr %3, align 8, !tbaa !5
  %19 = getelementptr inbounds i8, ptr %18, i64 -3
  %20 = getelementptr inbounds nuw %struct.sdshdr8, ptr %19, i32 0, i32 0
  %21 = load i8, ptr %20, align 1, !tbaa !12
  %22 = zext i8 %21 to i64
  store i64 %22, ptr %2, align 8
  store i32 1, ptr %5, align 4
  br label %41

23:                                               ; preds = %1
  %24 = load ptr, ptr %3, align 8, !tbaa !5
  %25 = getelementptr inbounds i8, ptr %24, i64 -5
  %26 = getelementptr inbounds nuw %struct.sdshdr16, ptr %25, i32 0, i32 0
  %27 = load i16, ptr %26, align 1, !tbaa !26
  %28 = zext i16 %27 to i64
  store i64 %28, ptr %2, align 8
  store i32 1, ptr %5, align 4
  br label %41

29:                                               ; preds = %1
  %30 = load ptr, ptr %3, align 8, !tbaa !5
  %31 = getelementptr inbounds i8, ptr %30, i64 -9
  %32 = getelementptr inbounds nuw %struct.sdshdr32, ptr %31, i32 0, i32 0
  %33 = load i32, ptr %32, align 1, !tbaa !10
  %34 = zext i32 %33 to i64
  store i64 %34, ptr %2, align 8
  store i32 1, ptr %5, align 4
  br label %41

35:                                               ; preds = %1
  %36 = load ptr, ptr %3, align 8, !tbaa !5
  %37 = getelementptr inbounds i8, ptr %36, i64 -17
  %38 = getelementptr inbounds nuw %struct.sdshdr64, ptr %37, i32 0, i32 0
  %39 = load i64, ptr %38, align 1, !tbaa !29
  store i64 %39, ptr %2, align 8
  store i32 1, ptr %5, align 4
  br label %41

40:                                               ; preds = %1
  store i64 0, ptr %2, align 8
  store i32 1, ptr %5, align 4
  br label %41

41:                                               ; preds = %40, %35, %29, %23, %17, %12
  call void @llvm.lifetime.end.p0(i64 1, ptr %4) #13
  %42 = load i64, ptr %2, align 8
  ret i64 %42
}

; Function Attrs: nounwind uwtable
define dso_local ptr @getAbsolutePath(ptr noundef %0) #0 {
  %2 = alloca ptr, align 8
  %3 = alloca ptr, align 8
  %4 = alloca [1024 x i8], align 16
  %5 = alloca ptr, align 8
  %6 = alloca ptr, align 8
  %7 = alloca i32, align 4
  %8 = alloca ptr, align 8
  %9 = alloca i32, align 4
  store ptr %0, ptr %3, align 8, !tbaa !5
  call void @llvm.lifetime.start.p0(i64 1024, ptr %4) #13
  call void @llvm.lifetime.start.p0(i64 8, ptr %5) #13
  call void @llvm.lifetime.start.p0(i64 8, ptr %6) #13
  %10 = load ptr, ptr %3, align 8, !tbaa !5
  %11 = call ptr @sdsnew(ptr noundef %10)
  store ptr %11, ptr %6, align 8, !tbaa !5
  %12 = load ptr, ptr %6, align 8, !tbaa !5
  %13 = call ptr @sdstrim(ptr noundef %12, ptr noundef @.str.18)
  store ptr %13, ptr %6, align 8, !tbaa !5
  %14 = load ptr, ptr %6, align 8, !tbaa !5
  %15 = getelementptr inbounds i8, ptr %14, i64 0
  %16 = load i8, ptr %15, align 1, !tbaa !12
  %17 = sext i8 %16 to i32
  %18 = icmp eq i32 %17, 47
  br i1 %18, label %19, label %21

19:                                               ; preds = %1
  %20 = load ptr, ptr %6, align 8, !tbaa !5
  store ptr %20, ptr %2, align 8
  store i32 1, ptr %7, align 4
  br label %104

21:                                               ; preds = %1
  %22 = getelementptr inbounds [1024 x i8], ptr %4, i64 0, i64 0
  %23 = call ptr @getcwd(ptr noundef %22, i64 noundef 1024) #13
  %24 = icmp eq ptr %23, null
  br i1 %24, label %25, label %27

25:                                               ; preds = %21
  %26 = load ptr, ptr %6, align 8, !tbaa !5
  call void @sdsfree(ptr noundef %26)
  store ptr null, ptr %2, align 8
  store i32 1, ptr %7, align 4
  br label %104

27:                                               ; preds = %21
  %28 = getelementptr inbounds [1024 x i8], ptr %4, i64 0, i64 0
  %29 = call ptr @sdsnew(ptr noundef %28)
  store ptr %29, ptr %5, align 8, !tbaa !5
  %30 = load ptr, ptr %5, align 8, !tbaa !5
  %31 = call i64 @sdslen(ptr noundef %30)
  %32 = icmp ne i64 %31, 0
  br i1 %32, label %33, label %45

33:                                               ; preds = %27
  %34 = load ptr, ptr %5, align 8, !tbaa !5
  %35 = load ptr, ptr %5, align 8, !tbaa !5
  %36 = call i64 @sdslen(ptr noundef %35)
  %37 = sub i64 %36, 1
  %38 = getelementptr inbounds nuw i8, ptr %34, i64 %37
  %39 = load i8, ptr %38, align 1, !tbaa !12
  %40 = sext i8 %39 to i32
  %41 = icmp ne i32 %40, 47
  br i1 %41, label %42, label %45

42:                                               ; preds = %33
  %43 = load ptr, ptr %5, align 8, !tbaa !5
  %44 = call ptr @sdscat(ptr noundef %43, ptr noundef @.str.19)
  store ptr %44, ptr %5, align 8, !tbaa !5
  br label %45

45:                                               ; preds = %42, %33, %27
  br label %46

46:                                               ; preds = %97, %45
  %47 = load ptr, ptr %6, align 8, !tbaa !5
  %48 = call i64 @sdslen(ptr noundef %47)
  %49 = icmp uge i64 %48, 3
  br i1 %49, label %50, label %68

50:                                               ; preds = %46
  %51 = load ptr, ptr %6, align 8, !tbaa !5
  %52 = getelementptr inbounds i8, ptr %51, i64 0
  %53 = load i8, ptr %52, align 1, !tbaa !12
  %54 = sext i8 %53 to i32
  %55 = icmp eq i32 %54, 46
  br i1 %55, label %56, label %68

56:                                               ; preds = %50
  %57 = load ptr, ptr %6, align 8, !tbaa !5
  %58 = getelementptr inbounds i8, ptr %57, i64 1
  %59 = load i8, ptr %58, align 1, !tbaa !12
  %60 = sext i8 %59 to i32
  %61 = icmp eq i32 %60, 46
  br i1 %61, label %62, label %68

62:                                               ; preds = %56
  %63 = load ptr, ptr %6, align 8, !tbaa !5
  %64 = getelementptr inbounds i8, ptr %63, i64 2
  %65 = load i8, ptr %64, align 1, !tbaa !12
  %66 = sext i8 %65 to i32
  %67 = icmp eq i32 %66, 47
  br label %68

68:                                               ; preds = %62, %56, %50, %46
  %69 = phi i1 [ false, %56 ], [ false, %50 ], [ false, %46 ], [ %67, %62 ]
  br i1 %69, label %70, label %98

70:                                               ; preds = %68
  %71 = load ptr, ptr %6, align 8, !tbaa !5
  call void @sdsrange(ptr noundef %71, i64 noundef 3, i64 noundef -1)
  %72 = load ptr, ptr %5, align 8, !tbaa !5
  %73 = call i64 @sdslen(ptr noundef %72)
  %74 = icmp ugt i64 %73, 1
  br i1 %74, label %75, label %97

75:                                               ; preds = %70
  call void @llvm.lifetime.start.p0(i64 8, ptr %8) #13
  %76 = load ptr, ptr %5, align 8, !tbaa !5
  %77 = load ptr, ptr %5, align 8, !tbaa !5
  %78 = call i64 @sdslen(ptr noundef %77)
  %79 = getelementptr inbounds nuw i8, ptr %76, i64 %78
  %80 = getelementptr inbounds i8, ptr %79, i64 -2
  store ptr %80, ptr %8, align 8, !tbaa !5
  call void @llvm.lifetime.start.p0(i64 4, ptr %9) #13
  store i32 1, ptr %9, align 4, !tbaa !10
  br label %81

81:                                               ; preds = %86, %75
  %82 = load ptr, ptr %8, align 8, !tbaa !5
  %83 = load i8, ptr %82, align 1, !tbaa !12
  %84 = sext i8 %83 to i32
  %85 = icmp ne i32 %84, 47
  br i1 %85, label %86, label %91

86:                                               ; preds = %81
  %87 = load ptr, ptr %8, align 8, !tbaa !5
  %88 = getelementptr inbounds i8, ptr %87, i32 -1
  store ptr %88, ptr %8, align 8, !tbaa !5
  %89 = load i32, ptr %9, align 4, !tbaa !10
  %90 = add nsw i32 %89, 1
  store i32 %90, ptr %9, align 4, !tbaa !10
  br label %81, !llvm.loop !65

91:                                               ; preds = %81
  %92 = load ptr, ptr %5, align 8, !tbaa !5
  %93 = load i32, ptr %9, align 4, !tbaa !10
  %94 = add nsw i32 %93, 1
  %95 = sub nsw i32 0, %94
  %96 = sext i32 %95 to i64
  call void @sdsrange(ptr noundef %92, i64 noundef 0, i64 noundef %96)
  call void @llvm.lifetime.end.p0(i64 4, ptr %9) #13
  call void @llvm.lifetime.end.p0(i64 8, ptr %8) #13
  br label %97

97:                                               ; preds = %91, %70
  br label %46, !llvm.loop !66

98:                                               ; preds = %68
  %99 = load ptr, ptr %5, align 8, !tbaa !5
  %100 = load ptr, ptr %6, align 8, !tbaa !5
  %101 = call ptr @sdscatsds(ptr noundef %99, ptr noundef %100)
  store ptr %101, ptr %5, align 8, !tbaa !5
  %102 = load ptr, ptr %6, align 8, !tbaa !5
  call void @sdsfree(ptr noundef %102)
  %103 = load ptr, ptr %5, align 8, !tbaa !5
  store ptr %103, ptr %2, align 8
  store i32 1, ptr %7, align 4
  br label %104

104:                                              ; preds = %98, %25, %19
  call void @llvm.lifetime.end.p0(i64 8, ptr %6) #13
  call void @llvm.lifetime.end.p0(i64 8, ptr %5) #13
  call void @llvm.lifetime.end.p0(i64 1024, ptr %4) #13
  %105 = load ptr, ptr %2, align 8
  ret ptr %105
}