; Function Attrs: nounwind uwtable
define dso_local ptr @getAbsolutePath(ptr noundef %0) local_unnamed_addr #4 {
  %2 = alloca [1024 x i8], align 16
  call void @llvm.lifetime.start.p0(i64 1024, ptr nonnull %2) #29
  %3 = tail call ptr @sdsnew(ptr noundef %0) #29
  %4 = tail call ptr @sdstrim(ptr noundef %3, ptr noundef nonnull @.str.18) #29
  %5 = load i8, ptr %4, align 1, !tbaa !9
  %6 = icmp eq i8 %5, 47
  br i1 %6, label %138, label %7

7:                                                ; preds = %1
  %8 = call ptr @getcwd(ptr noundef nonnull %2, i64 noundef 1024) #29
  %9 = icmp eq ptr %8, null
  br i1 %9, label %.sink.split, label %10

10:                                               ; preds = %7
  %11 = call ptr @sdsnew(ptr noundef nonnull %2) #29
  %12 = getelementptr inbounds i8, ptr %11, i64 -1
  %13 = load i8, ptr %12, align 1, !tbaa !9
  %14 = zext i8 %13 to i32
  %15 = and i32 %14, 7
  switch i32 %15, label %sdslen.exit.thread [
    i32 0, label %16
    i32 1, label %19
    i32 2, label %23
    i32 3, label %27
    i32 4, label %31
  ]

16:                                               ; preds = %10
  %17 = lshr i32 %14, 3
  %18 = zext nneg i32 %17 to i64
  br label %sdslen.exit

19:                                               ; preds = %10
  %20 = getelementptr inbounds i8, ptr %11, i64 -3
  %21 = load i8, ptr %20, align 1, !tbaa !9
  %22 = zext i8 %21 to i64
  br label %sdslen.exit

23:                                               ; preds = %10
  %24 = getelementptr inbounds i8, ptr %11, i64 -5
  %25 = load i16, ptr %24, align 1, !tbaa !24
  %26 = zext i16 %25 to i64
  br label %sdslen.exit

27:                                               ; preds = %10
  %28 = getelementptr inbounds i8, ptr %11, i64 -9
  %29 = load i32, ptr %28, align 1, !tbaa !5
  %30 = zext i32 %29 to i64
  br label %sdslen.exit

31:                                               ; preds = %10
  %32 = getelementptr inbounds i8, ptr %11, i64 -17
  %33 = load i64, ptr %32, align 1, !tbaa !37
  br label %sdslen.exit

sdslen.exit:                                      ; preds = %16, %19, %23, %27, %31
  %.0.i = phi i64 [ %33, %31 ], [ %30, %27 ], [ %26, %23 ], [ %22, %19 ], [ %18, %16 ]
  %.not = icmp eq i64 %.0.i, 0
  br i1 %.not, label %sdslen.exit.thread, label %34

34:                                               ; preds = %sdslen.exit
  switch i32 %15, label %default.unreachable43 [
    i32 0, label %35
    i32 1, label %38
    i32 2, label %42
    i32 3, label %46
    i32 4, label %50
  ]

35:                                               ; preds = %34
  %36 = lshr i32 %14, 3
  %37 = zext nneg i32 %36 to i64
  br label %sdslen.exit32

38:                                               ; preds = %34
  %39 = getelementptr inbounds i8, ptr %11, i64 -3
  %40 = load i8, ptr %39, align 1, !tbaa !9
  %41 = zext i8 %40 to i64
  br label %sdslen.exit32

42:                                               ; preds = %34
  %43 = getelementptr inbounds i8, ptr %11, i64 -5
  %44 = load i16, ptr %43, align 1, !tbaa !24
  %45 = zext i16 %44 to i64
  br label %sdslen.exit32

46:                                               ; preds = %34
  %47 = getelementptr inbounds i8, ptr %11, i64 -9
  %48 = load i32, ptr %47, align 1, !tbaa !5
  %49 = zext i32 %48 to i64
  br label %sdslen.exit32

50:                                               ; preds = %34
  %51 = getelementptr inbounds i8, ptr %11, i64 -17
  %52 = load i64, ptr %51, align 1, !tbaa !37
  br label %sdslen.exit32

default.unreachable43:                            ; preds = %34
  unreachable

sdslen.exit32:                                    ; preds = %35, %38, %42, %46, %50
  %.0.i31 = phi i64 [ %52, %50 ], [ %49, %46 ], [ %45, %42 ], [ %41, %38 ], [ %37, %35 ]
  %53 = getelementptr i8, ptr %11, i64 %.0.i31
  %54 = getelementptr i8, ptr %53, i64 -1
  %55 = load i8, ptr %54, align 1, !tbaa !9
  %.not29 = icmp eq i8 %55, 47
  br i1 %.not29, label %sdslen.exit.thread, label %56

56:                                               ; preds = %sdslen.exit32
  %57 = call ptr @sdscat(ptr noundef nonnull %11, ptr noundef nonnull @.str.19) #29
  br label %sdslen.exit.thread

sdslen.exit.thread:                               ; preds = %10, %56, %sdslen.exit32, %sdslen.exit
  %.027 = phi ptr [ %57, %56 ], [ %11, %sdslen.exit32 ], [ %11, %sdslen.exit ], [ %11, %10 ]
  %58 = getelementptr inbounds i8, ptr %4, i64 -1
  %invariant.gep = getelementptr i8, ptr %.027, i64 -2
  %59 = getelementptr inbounds i8, ptr %4, i64 -17
  %60 = getelementptr inbounds i8, ptr %4, i64 -9
  %61 = getelementptr inbounds i8, ptr %4, i64 -5
  %62 = getelementptr inbounds i8, ptr %4, i64 -3
  %63 = getelementptr inbounds nuw i8, ptr %4, i64 1
  %64 = getelementptr inbounds nuw i8, ptr %4, i64 2
  %65 = getelementptr inbounds i8, ptr %.027, i64 -1
  %66 = getelementptr inbounds i8, ptr %.027, i64 -17
  %67 = getelementptr inbounds i8, ptr %.027, i64 -9
  %68 = getelementptr inbounds i8, ptr %.027, i64 -5
  %69 = getelementptr inbounds i8, ptr %.027, i64 -3
  br label %sdslen.exit36.thread

sdslen.exit36.thread:                             ; preds = %sdslen.exit36.thread.backedge, %sdslen.exit.thread
  %70 = load i8, ptr %58, align 1, !tbaa !9
  %71 = zext i8 %70 to i32
  %72 = and i32 %71, 7
  switch i32 %72, label %.critedge [
    i32 0, label %73
    i32 1, label %76
    i32 2, label %79
    i32 3, label %82
    i32 4, label %85
  ]

73:                                               ; preds = %sdslen.exit36.thread
  %74 = lshr i32 %71, 3
  %75 = zext nneg i32 %74 to i64
  br label %sdslen.exit34

76:                                               ; preds = %sdslen.exit36.thread
  %77 = load i8, ptr %62, align 1, !tbaa !9
  %78 = zext i8 %77 to i64
  br label %sdslen.exit34

79:                                               ; preds = %sdslen.exit36.thread
  %80 = load i16, ptr %61, align 1, !tbaa !24
  %81 = zext i16 %80 to i64
  br label %sdslen.exit34

82:                                               ; preds = %sdslen.exit36.thread
  %83 = load i32, ptr %60, align 1, !tbaa !5
  %84 = zext i32 %83 to i64
  br label %sdslen.exit34

85:                                               ; preds = %sdslen.exit36.thread
  %86 = load i64, ptr %59, align 1, !tbaa !37
  br label %sdslen.exit34

sdslen.exit34:                                    ; preds = %73, %76, %79, %82, %85
  %.0.i33 = phi i64 [ %86, %85 ], [ %84, %82 ], [ %81, %79 ], [ %78, %76 ], [ %75, %73 ]
  %87 = icmp ugt i64 %.0.i33, 2
  br i1 %87, label %88, label %.critedge

88:                                               ; preds = %sdslen.exit34
  %89 = load i8, ptr %4, align 1, !tbaa !9
  %90 = icmp eq i8 %89, 46
  br i1 %90, label %91, label %.critedge

91:                                               ; preds = %88
  %92 = load i8, ptr %63, align 1, !tbaa !9
  %93 = icmp eq i8 %92, 46
  br i1 %93, label %94, label %.critedge

94:                                               ; preds = %91
  %95 = load i8, ptr %64, align 1, !tbaa !9
  %96 = icmp eq i8 %95, 47
  br i1 %96, label %97, label %.critedge

97:                                               ; preds = %94
  call void @sdsrange(ptr noundef nonnull %4, i64 noundef 3, i64 noundef -1) #29
  %98 = load i8, ptr %65, align 1, !tbaa !9
  %99 = zext i8 %98 to i32
  %100 = and i32 %99, 7
  switch i32 %100, label %sdslen.exit36.thread.backedge [
    i32 0, label %101
    i32 1, label %104
    i32 2, label %107
    i32 3, label %110
    i32 4, label %113
  ]

sdslen.exit36.thread.backedge:                    ; preds = %97, %._crit_edge, %sdslen.exit36
  br label %sdslen.exit36.thread, !llvm.loop !55

101:                                              ; preds = %97
  %102 = lshr i32 %99, 3
  %103 = zext nneg i32 %102 to i64
  br label %sdslen.exit36

104:                                              ; preds = %97
  %105 = load i8, ptr %69, align 1, !tbaa !9
  %106 = zext i8 %105 to i64
  br label %sdslen.exit36

107:                                              ; preds = %97
  %108 = load i16, ptr %68, align 1, !tbaa !24
  %109 = zext i16 %108 to i64
  br label %sdslen.exit36

110:                                              ; preds = %97
  %111 = load i32, ptr %67, align 1, !tbaa !5
  %112 = zext i32 %111 to i64
  br label %sdslen.exit36

113:                                              ; preds = %97
  %114 = load i64, ptr %66, align 1, !tbaa !37
  br label %sdslen.exit36

sdslen.exit36:                                    ; preds = %101, %104, %107, %110, %113
  %.0.i35 = phi i64 [ %114, %113 ], [ %112, %110 ], [ %109, %107 ], [ %106, %104 ], [ %103, %101 ]
  %115 = icmp ugt i64 %.0.i35, 1
  br i1 %115, label %116, label %sdslen.exit36.thread.backedge

116:                                              ; preds = %sdslen.exit36
  switch i32 %100, label %default.unreachable [
    i32 0, label %117
    i32 1, label %120
    i32 2, label %123
    i32 3, label %126
    i32 4, label %129
  ]

117:                                              ; preds = %116
  %118 = lshr i32 %99, 3
  %119 = zext nneg i32 %118 to i64
  br label %sdslen.exit38

120:                                              ; preds = %116
  %121 = load i8, ptr %69, align 1, !tbaa !9
  %122 = zext i8 %121 to i64
  br label %sdslen.exit38

123:                                              ; preds = %116
  %124 = load i16, ptr %68, align 1, !tbaa !24
  %125 = zext i16 %124 to i64
  br label %sdslen.exit38

126:                                              ; preds = %116
  %127 = load i32, ptr %67, align 1, !tbaa !5
  %128 = zext i32 %127 to i64
  br label %sdslen.exit38

129:                                              ; preds = %116
  %130 = load i64, ptr %66, align 1, !tbaa !37
  br label %sdslen.exit38

default.unreachable:                              ; preds = %116
  unreachable

sdslen.exit38:                                    ; preds = %117, %120, %123, %126, %129
  %.0.i37 = phi i64 [ %130, %129 ], [ %128, %126 ], [ %125, %123 ], [ %122, %120 ], [ %119, %117 ]
  %gep = getelementptr i8, ptr %invariant.gep, i64 %.0.i37
  %131 = load i8, ptr %gep, align 1, !tbaa !9
  %.not3044 = icmp eq i8 %131, 47
  br i1 %.not3044, label %._crit_edge, label %.lr.ph

.lr.ph:                                           ; preds = %sdslen.exit38, %.lr.ph
  %.046 = phi i32 [ %133, %.lr.ph ], [ 1, %sdslen.exit38 ]
  %.02645 = phi ptr [ %132, %.lr.ph ], [ %gep, %sdslen.exit38 ]
  %132 = getelementptr inbounds i8, ptr %.02645, i64 -1
  %133 = add nuw nsw i32 %.046, 1
  %134 = load i8, ptr %132, align 1, !tbaa !9
  %.not30 = icmp eq i8 %134, 47
  br i1 %.not30, label %._crit_edge.loopexit, label %.lr.ph, !llvm.loop !56

._crit_edge.loopexit:                             ; preds = %.lr.ph
  %135 = sub nuw i32 -2, %.046
  %136 = sext i32 %135 to i64
  br label %._crit_edge

._crit_edge:                                      ; preds = %._crit_edge.loopexit, %sdslen.exit38
  %.0.lcssa = phi i64 [ -2, %sdslen.exit38 ], [ %136, %._crit_edge.loopexit ]
  call void @sdsrange(ptr noundef %.027, i64 noundef 0, i64 noundef %.0.lcssa) #29
  br label %sdslen.exit36.thread.backedge

.critedge:                                        ; preds = %sdslen.exit36.thread, %91, %88, %sdslen.exit34, %94
  %137 = call ptr @sdscatsds(ptr noundef %.027, ptr noundef nonnull %4) #29
  br label %.sink.split

.sink.split:                                      ; preds = %7, %.critedge
  %.028.ph = phi ptr [ %137, %.critedge ], [ null, %7 ]
  call void @sdsfree(ptr noundef nonnull %4) #29
  br label %138

138:                                              ; preds = %.sink.split, %1
  %.028 = phi ptr [ %4, %1 ], [ %.028.ph, %.sink.split ]
  call void @llvm.lifetime.end.p0(i64 1024, ptr nonnull %2) #29
  ret ptr %.028
}